; Function Attrs: mustprogress nofree norecurse nosync nounwind memory(readwrite, inaccessiblemem: write) uwtable
define internal noundef nonnull ptr @_ZN6evmone8advanced12_GLOBAL__N_12opIXadL_ZNS0_5instr4implILNS_6OpcodeE21EXadL_ZNS_5instr4core6iszeroENS_8StackTopEEEEEvRNS0_22AdvancedExecutionStateEEEEEPKNS0_11InstructionESD_SA_(ptr noundef readnone captures(ret: address, provenance) %0, ptr noundef nonnull align 8 captures(none) dereferenceable(564) %1) #2 {
  %3 = alloca %"struct.intx::uint", align 8
  %4 = getelementptr inbounds nuw i8, ptr %1, i64 552
  %.sroa.0.0.copyload.i = load ptr, ptr %4, align 8, !tbaa !57
  %5 = getelementptr inbounds i8, ptr %.sroa.0.0.copyload.i, i64 -32
  call void @llvm.lifetime.start.p0(ptr nonnull %3) #26
  call void @llvm.memset.p0.i64(ptr noundef nonnull align 8 dereferenceable(32) %3, i8 0, i64 32, i1 false)
  br label %6

6:                                                ; preds = %6, %2
  %.09.i.i.i = phi i64 [ 0, %2 ], [ %13, %6 ]
  %.078.i.i.i = phi i64 [ 0, %2 ], [ %12, %6 ]
  %7 = getelementptr inbounds nuw i64, ptr %5, i64 %.09.i.i.i
  %8 = load i64, ptr %7, align 8, !tbaa !59
  %9 = getelementptr inbounds nuw i64, ptr %3, i64 %.09.i.i.i
  %10 = load i64, ptr %9, align 8, !tbaa !59
  %11 = xor i64 %10, %8
  %12 = or i64 %11, %.078.i.i.i
  %13 = add nuw nsw i64 %.09.i.i.i, 1
  %exitcond.not.i.i.i = icmp eq i64 %13, 4
  br i1 %exitcond.not.i.i.i, label %_ZN6evmone8advanced5instr4implILNS_6OpcodeE21EXadL_ZNS_5instr4core6iszeroENS_8StackTopEEEEEvRNS0_22AdvancedExecutionStateE.exit, label %6, !llvm.loop !86

_ZN6evmone8advanced5instr4implILNS_6OpcodeE21EXadL_ZNS_5instr4core6iszeroENS_8StackTopEEEEEvRNS0_22AdvancedExecutionStateE.exit: ; preds = %6
  %14 = icmp eq i64 %12, 0
  %15 = zext i1 %14 to i64
  store i64 %15, ptr %5, align 8
  %.sroa.4.0..sroa_idx.i.i = getelementptr inbounds i8, ptr %.sroa.0.0.copyload.i, i64 -24
  tail call void @llvm.memset.p0.i64(ptr noundef nonnull align 8 dereferenceable(24) %.sroa.4.0..sroa_idx.i.i, i8 0, i64 24, i1 false)
  call void @llvm.lifetime.end.p0(ptr nonnull %3) #26
  %16 = load ptr, ptr %4, align 8, !tbaa !67
  call void @llvm.assume(i1 true) [ "align"(ptr %16, i64 32) ]
  %17 = ptrtoint ptr %16 to i64
  store i64 %17, ptr %4, align 8, !tbaa !57
  %18 = getelementptr inbounds nuw i8, ptr %0, i64 16
  ret ptr %18
}